target datalayout = "e-m:e-p270:32:32-p271:32:32-p272:64:64-i64:64-i128:128-f80:128-n8:16:32:64-S128"
target triple = "x86_64-pc-linux-gnu"

%struct._zval_struct = type { %union._zend_value, %union.anon.3, %union.anon.6 }
%union._zend_value = type { i64 }
%union.anon.3 = type { i32 }
%union.anon.6 = type { i32 }
%struct._zend_array = type { %struct._zend_refcounted_h, %union.anon.0, i32, %union.anon.1, i32, i32, i32, i32, i64, ptr }
%struct._zend_refcounted_h = type { i32, %union.anon }
%union.anon = type { i32 }
%union.anon.0 = type { i32 }
%union.anon.1 = type { ptr }
%struct._spl_SplObjectStorage = type { %struct._zend_array, i64, i32, i64, ptr, %struct._zend_object }
%struct._zend_object = type { %struct._zend_refcounted_h, i32, ptr, ptr, ptr, [1 x %struct._zval_struct] }
%struct._zend_hash_key = type { i64, ptr }

@spl_ce_RuntimeException = external global ptr, align 8
@.str.15 = private unnamed_addr constant [8 x i8] c"getHash\00", align 1
@.str.16 = private unnamed_addr constant [26 x i8] c"Hash needs to be a string\00", align 1

; Function Attrs: nounwind uwtable
define internal i32 @spl_object_storage_get_hash(ptr noundef %0, ptr noundef %1, ptr noundef %2) #0 {
  %4 = alloca ptr, align 8
  %5 = alloca ptr, align 8
  %6 = alloca ptr, align 8
  %7 = alloca ptr, align 8
  %8 = alloca ptr, align 8
  %9 = alloca ptr, align 8
  %10 = alloca ptr, align 8
  %11 = alloca ptr, align 8
  %12 = alloca i32, align 4
  %13 = alloca ptr, align 8
  %14 = alloca ptr, align 8
  %15 = alloca ptr, align 8
  %16 = alloca %struct._zval_struct, align 8
  %17 = alloca %struct._zval_struct, align 8
  %18 = alloca ptr, align 8
  store ptr %0, ptr %13, align 8
  store ptr %1, ptr %14, align 8
  store ptr %2, ptr %15, align 8
  %19 = load ptr, ptr %14, align 8
  %20 = getelementptr inbounds %struct._spl_SplObjectStorage, ptr %19, i32 0, i32 4
  %21 = load ptr, ptr %20, align 8
  %22 = icmp ne ptr %21, null
  %23 = xor i1 %22, true
  %24 = xor i1 %23, true
  %25 = zext i1 %24 to i32
  %26 = sext i32 %25 to i64
  %27 = icmp ne i64 %26, 0
  br i1 %27, label %28, label %73

28:                                               ; preds = %3
  br label %29

29:                                               ; preds = %28
  store ptr %16, ptr %18, align 8
  %30 = load ptr, ptr %15, align 8
  %31 = load ptr, ptr %18, align 8
  %32 = getelementptr inbounds %struct._zval_struct, ptr %31, i32 0, i32 0
  store ptr %30, ptr %32, align 8
  %33 = load ptr, ptr %18, align 8
  %34 = getelementptr inbounds %struct._zval_struct, ptr %33, i32 0, i32 1
  store i32 776, ptr %34, align 8
  br label %35

35:                                               ; preds = %29
  %36 = load ptr, ptr %14, align 8
  %37 = getelementptr inbounds %struct._spl_SplObjectStorage, ptr %36, i32 0, i32 5
  %38 = load ptr, ptr %14, align 8
  %39 = getelementptr inbounds %struct._spl_SplObjectStorage, ptr %38, i32 0, i32 5
  %40 = getelementptr inbounds %struct._zend_object, ptr %39, i32 0, i32 2
  %41 = load ptr, ptr %40, align 8
  %42 = load ptr, ptr %14, align 8
  %43 = getelementptr inbounds %struct._spl_SplObjectStorage, ptr %42, i32 0, i32 4
  store ptr %37, ptr %4, align 8
  store ptr %41, ptr %5, align 8
  store ptr %43, ptr %6, align 8
  store ptr @.str.15, ptr %7, align 8
  store ptr %17, ptr %8, align 8
  store ptr %16, ptr %9, align 8
  %44 = load ptr, ptr %4, align 8
  %45 = load ptr, ptr %5, align 8
  %46 = load ptr, ptr %6, align 8
  %47 = load ptr, ptr %7, align 8
  %48 = load ptr, ptr %7, align 8
  %49 = call i64 @strlen(ptr noundef %48) #12
  %50 = load ptr, ptr %8, align 8
  %51 = load ptr, ptr %9, align 8
  %52 = call ptr @zend_call_method(ptr noundef %44, ptr noundef %45, ptr noundef %46, ptr noundef %47, i64 noundef %49, ptr noundef %50, i32 noundef 1, ptr noundef %51, ptr noundef null) #10
  store ptr %17, ptr %10, align 8
  %53 = load ptr, ptr %10, align 8
  %54 = getelementptr inbounds %struct._zval_struct, ptr %53, i32 0, i32 1
  %55 = load i8, ptr %54, align 8
  %56 = zext i8 %55 to i32
  %57 = icmp eq i32 %56, 0
  br i1 %57, label %72, label %58

58:                                               ; preds = %35
  store ptr %17, ptr %11, align 8
  %59 = load ptr, ptr %11, align 8
  %60 = getelementptr inbounds %struct._zval_struct, ptr %59, i32 0, i32 1
  %61 = load i8, ptr %60, align 8
  %62 = zext i8 %61 to i32
  %63 = icmp eq i32 %62, 6
  br i1 %63, label %64, label %69

64:                                               ; preds = %58
  %65 = getelementptr inbounds %struct._zval_struct, ptr %17, i32 0, i32 0
  %66 = load ptr, ptr %65, align 8
  %67 = load ptr, ptr %13, align 8
  %68 = getelementptr inbounds %struct._zend_hash_key, ptr %67, i32 0, i32 1
  store ptr %66, ptr %68, align 8
  store i32 0, ptr %12, align 4
  br label %82

69:                                               ; preds = %58
  %70 = load ptr, ptr @spl_ce_RuntimeException, align 8
  %71 = call ptr @zend_throw_exception(ptr noundef %70, ptr noundef @.str.16, i64 noundef 0)
  call void @zval_ptr_dtor(ptr noundef %17)
  store i32 -1, ptr %12, align 4
  br label %82

72:                                               ; preds = %35
  store i32 -1, ptr %12, align 4
  br label %82

73:                                               ; preds = %3
  %74 = load ptr, ptr %13, align 8
  %75 = getelementptr inbounds %struct._zend_hash_key, ptr %74, i32 0, i32 1
  store ptr null, ptr %75, align 8
  %76 = load ptr, ptr %15, align 8
  %77 = getelementptr inbounds %struct._zend_object, ptr %76, i32 0, i32 1
  %78 = load i32, ptr %77, align 8
  %79 = zext i32 %78 to i64
  %80 = load ptr, ptr %13, align 8
  %81 = getelementptr inbounds %struct._zend_hash_key, ptr %80, i32 0, i32 0
  store i64 %79, ptr %81, align 8
  store i32 0, ptr %12, align 4
  br label %82

82:                                               ; preds = %73, %72, %69, %64
  %83 = load i32, ptr %12, align 4
  ret i32 %83
}

; Function Attrs: nounwind uwtable
define internal zeroext i1 @spl_object_storage_contains(ptr noundef %0, ptr noundef %1) #0 {
  %3 = alloca ptr, align 8
  %4 = alloca ptr, align 8
  %5 = alloca ptr, align 8
  %6 = alloca i32, align 4
  %7 = alloca ptr, align 8
  %8 = alloca i8, align 1
  %9 = alloca i1, align 1
  %10 = alloca ptr, align 8
  %11 = alloca ptr, align 8
  %12 = alloca %struct._zend_hash_key, align 8
  %13 = alloca i8, align 1
  store ptr %0, ptr %10, align 8
  store ptr %1, ptr %11, align 8
  %14 = load ptr, ptr %10, align 8
  %15 = getelementptr inbounds %struct._spl_SplObjectStorage, ptr %14, i32 0, i32 4
  %16 = load ptr, ptr %15, align 8
  %17 = icmp ne ptr %16, null
  %18 = xor i1 %17, true
  %19 = xor i1 %18, true
  %20 = xor i1 %19, true
  %21 = zext i1 %20 to i32
  %22 = sext i32 %21 to i64
  %23 = icmp ne i64 %22, 0
  br i1 %23, label %24, label %33

24:                                               ; preds = %2
  %25 = load ptr, ptr %10, align 8
  %26 = getelementptr inbounds %struct._spl_SplObjectStorage, ptr %25, i32 0, i32 0
  %27 = load ptr, ptr %11, align 8
  %28 = getelementptr inbounds %struct._zend_object, ptr %27, i32 0, i32 1
  %29 = load i32, ptr %28, align 8
  %30 = zext i32 %29 to i64
  %31 = call ptr @zend_hash_index_find(ptr noundef %26, i64 noundef %30)
  %32 = icmp ne ptr %31, null
  store i1 %32, ptr %9, align 1
  br label %82

33:                                               ; preds = %2
  %34 = load ptr, ptr %10, align 8
  %35 = load ptr, ptr %11, align 8
  %36 = call i32 @spl_object_storage_get_hash(ptr noundef %12, ptr noundef %34, ptr noundef %35)
  %37 = icmp eq i32 %36, -1
  br i1 %37, label %38, label %39

38:                                               ; preds = %33
  store i1 true, ptr %9, align 1
  br label %82

39:                                               ; preds = %33
  %40 = getelementptr inbounds %struct._zend_hash_key, ptr %12, i32 0, i32 1
  %41 = load ptr, ptr %40, align 8
  %42 = icmp ne ptr %41, null
  call void @llvm.assume(i1 %42)
  %43 = load ptr, ptr %10, align 8
  %44 = getelementptr inbounds %struct._spl_SplObjectStorage, ptr %43, i32 0, i32 0
  %45 = getelementptr inbounds %struct._zend_hash_key, ptr %12, i32 0, i32 1
  %46 = load ptr, ptr %45, align 8
  store ptr %44, ptr %3, align 8
  store ptr %46, ptr %4, align 8
  %47 = load ptr, ptr %3, align 8
  %48 = load ptr, ptr %4, align 8
  %49 = call ptr @zend_hash_find(ptr noundef %47, ptr noundef %48) #10
  %50 = icmp ne ptr %49, null
  %51 = zext i1 %50 to i8
  store i8 %51, ptr %13, align 1
  %52 = getelementptr inbounds %struct._zend_hash_key, ptr %12, i32 0, i32 1
  %53 = load ptr, ptr %52, align 8
  store ptr %53, ptr %7, align 8
  store i8 0, ptr %8, align 1
  %54 = load ptr, ptr %7, align 8
  %55 = getelementptr inbounds %struct._zend_refcounted_h, ptr %54, i32 0, i32 1
  %56 = load i32, ptr %55, align 4
  store i32 %56, ptr %6, align 4
  %57 = load i32, ptr %6, align 4
  %58 = and i32 %57, 1008
  %59 = and i32 %58, 64
  %60 = icmp ne i32 %59, 0
  br i1 %60, label %79, label %61

61:                                               ; preds = %39
  %62 = load ptr, ptr %7, align 8
  store ptr %62, ptr %5, align 8
  %63 = load ptr, ptr %5, align 8
  %64 = load i32, ptr %63, align 4
  %65 = icmp ugt i32 %64, 0
  call void @llvm.assume(i1 %65)
  %66 = load ptr, ptr %5, align 8
  %67 = load i32, ptr %66, align 4
  %68 = add i32 %67, -1
  store i32 %68, ptr %66, align 4
  %69 = icmp eq i32 %68, 0
  br i1 %69, label %70, label %78

70:                                               ; preds = %61
  %71 = load i8, ptr %8, align 1
  %72 = trunc i8 %71 to i1
  br i1 %72, label %73, label %75

73:                                               ; preds = %70
  %74 = load ptr, ptr %7, align 8
  call void @free(ptr noundef %74) #10
  br label %77

75:                                               ; preds = %70
  %76 = load ptr, ptr %7, align 8
  call void @_efree(ptr noundef %76) #10
  br label %77

77:                                               ; preds = %75, %73
  br label %78

78:                                               ; preds = %77, %61
  br label %79

79:                                               ; preds = %78, %39
  %80 = load i8, ptr %13, align 1
  %81 = trunc i8 %80 to i1
  store i1 %81, ptr %9, align 1
  br label %82

82:                                               ; preds = %79, %38, %24
  %83 = load i1, ptr %9, align 1
  ret i1 %83
}