; Function Attrs: nounwind uwtable
define internal fastcc zeroext i1 @spl_object_storage_contains(ptr noundef %0, ptr noundef %1) unnamed_addr #0 {
  %3 = alloca %struct._zval_struct, align 8
  %4 = alloca %struct._zval_struct, align 8
  %5 = getelementptr inbounds i8, ptr %0, i64 80
  %6 = load ptr, ptr %5, align 8
  %.not = icmp eq ptr %6, null
  br i1 %.not, label %7, label %13

7:                                                ; preds = %2
  %8 = getelementptr inbounds i8, ptr %1, i64 8
  %9 = load i32, ptr %8, align 8
  %10 = zext i32 %9 to i64
  %11 = tail call ptr @zend_hash_index_find(ptr noundef nonnull %0, i64 noundef %10) #10
  %12 = icmp ne ptr %11, null
  br label %37

13:                                               ; preds = %2
  call void @llvm.lifetime.start.p0(i64 16, ptr nonnull %3)
  call void @llvm.lifetime.start.p0(i64 16, ptr nonnull %4)
  store ptr %1, ptr %3, align 8
  %14 = getelementptr inbounds i8, ptr %3, i64 8
  store i32 776, ptr %14, align 8
  %15 = getelementptr inbounds i8, ptr %0, i64 88
  %16 = getelementptr inbounds i8, ptr %0, i64 104
  %17 = load ptr, ptr %16, align 8
  %18 = call ptr @zend_call_method(ptr noundef nonnull %15, ptr noundef %17, ptr noundef nonnull %5, ptr noundef nonnull @.str.15, i64 noundef 7, ptr noundef nonnull %4, i32 noundef 1, ptr noundef nonnull %3, ptr noundef null) #10
  %19 = getelementptr inbounds i8, ptr %4, i64 8
  %20 = load i8, ptr %19, align 8
  switch i8 %20, label %21 [
    i8 0, label %spl_object_storage_get_hash.exit.thread
    i8 6, label %24
  ]

21:                                               ; preds = %13
  %22 = load ptr, ptr @spl_ce_RuntimeException, align 8
  %23 = call ptr @zend_throw_exception(ptr noundef %22, ptr noundef nonnull @.str.16, i64 noundef 0) #10
  call void @zval_ptr_dtor(ptr noundef nonnull %4) #10
  br label %spl_object_storage_get_hash.exit.thread

spl_object_storage_get_hash.exit.thread:          ; preds = %21, %13
  call void @llvm.lifetime.end.p0(i64 16, ptr nonnull %3)
  call void @llvm.lifetime.end.p0(i64 16, ptr nonnull %4)
  br label %37

24:                                               ; preds = %13
  %25 = load ptr, ptr %4, align 8, !nonnull !4, !noundef !4
  call void @llvm.lifetime.end.p0(i64 16, ptr nonnull %3)
  call void @llvm.lifetime.end.p0(i64 16, ptr nonnull %4)
  %26 = call ptr @zend_hash_find(ptr noundef nonnull %0, ptr noundef nonnull %25) #10
  %27 = icmp ne ptr %26, null
  %28 = getelementptr inbounds i8, ptr %25, i64 4
  %29 = load i32, ptr %28, align 4
  %30 = and i32 %29, 64
  %.not17 = icmp eq i32 %30, 0
  br i1 %.not17, label %31, label %37

31:                                               ; preds = %24
  %32 = load i32, ptr %25, align 4
  %33 = icmp ne i32 %32, 0
  call void @llvm.assume(i1 %33)
  %34 = add i32 %32, -1
  store i32 %34, ptr %25, align 4
  %35 = icmp eq i32 %34, 0
  br i1 %35, label %36, label %37

36:                                               ; preds = %31
  call void @_efree(ptr noundef nonnull %25) #10
  br label %37

37:                                               ; preds = %spl_object_storage_get_hash.exit.thread, %24, %36, %31, %7
  %.0 = phi i1 [ %12, %7 ], [ %27, %31 ], [ %27, %36 ], [ %27, %24 ], [ true, %spl_object_storage_get_hash.exit.thread ]
  ret i1 %.0
}